; ModuleID = '11/878.c'
source_filename = "11/878.c"
target datalayout = "e-m:e-p270:32:32-p271:32:32-p272:64:64-i64:64-f80:128-n8:16:32:64-S128"
target triple = "x86_64-pc-linux-gnu"

@.str = private unnamed_addr constant [9 x i8] c"%d %d %d\00", align 1
@__const.main.a = private unnamed_addr constant [13 x i32] [i32 0, i32 31, i32 28, i32 31, i32 30, i32 31, i32 30, i32 31, i32 31, i32 30, i32 31, i32 30, i32 31], align 16
@.str.1 = private unnamed_addr constant [4 x i8] c"%d\0A\00", align 1

; Function Attrs: noinline nounwind uwtable
define dso_local i32 @main() #0 {
  %1 = alloca i32, align 4
  %2 = alloca i32, align 4
  %3 = alloca i32, align 4
  %4 = alloca i32, align 4
  %5 = alloca i32, align 4
  %6 = alloca i32, align 4
  %7 = alloca i32, align 4
  %8 = alloca [13 x i32], align 16
  store i32 0, i32* %1, align 4
  store i32 0, i32* %5, align 4
  %9 = call i32 (i8*, ...) @__isoc99_scanf(i8* getelementptr inbounds ([9 x i8], [9 x i8]* @.str, i64 0, i64 0), i32* %2, i32* %3, i32* %4)
  %10 = bitcast [13 x i32]* %8 to i8*
  call void @llvm.memcpy.p0i8.p0i8.i64(i8* align 16 %10, i8* align 16 bitcast ([13 x i32]* @__const.main.a to i8*), i64 52, i1 false)
  store i32 1, i32* %6, align 4
  br label %11

11:                                               ; preds = %22, %0
  %12 = load i32, i32* %6, align 4
  %13 = load i32, i32* %3, align 4
  %14 = icmp slt i32 %12, %13
  br i1 %14, label %15, label %25

15:                                               ; preds = %11
  %16 = load i32, i32* %5, align 4
  %17 = load i32, i32* %6, align 4
  %18 = sext i32 %17 to i64
  %19 = getelementptr inbounds [13 x i32], [13 x i32]* %8, i64 0, i64 %18
  %20 = load i32, i32* %19, align 4
  %21 = add nsw i32 %16, %20
  store i32 %21, i32* %5, align 4
  br label %22

22:                                               ; preds = %15
  %23 = load i32, i32* %6, align 4
  %24 = add nsw i32 %23, 1
  store i32 %24, i32* %6, align 4
  br label %11

25:                                               ; preds = %11
  %26 = load i32, i32* %5, align 4
  %27 = load i32, i32* %4, align 4
  %28 = add nsw i32 %26, %27
  store i32 %28, i32* %5, align 4
  %29 = load i32, i32* %2, align 4
  %30 = srem i32 %29, 4
  %31 = icmp eq i32 %30, 0
  br i1 %31, label %32, label %45

32:                                               ; preds = %25
  %33 = load i32, i32* %2, align 4
  %34 = srem i32 %33, 100
  %35 = icmp eq i32 %34, 0
  br i1 %35, label %36, label %43

36:                                               ; preds = %32
  %37 = load i32, i32* %2, align 4
  %38 = srem i32 %37, 400
  %39 = icmp eq i32 %38, 0
  br i1 %39, label %40, label %41

40:                                               ; preds = %36
  store i32 1, i32* %7, align 4
  br label %42

41:                                               ; preds = %36
  store i32 0, i32* %7, align 4
  br label %42

42:                                               ; preds = %41, %40
  br label %44

43:                                               ; preds = %32
  store i32 1, i32* %7, align 4
  br label %44

44:                                               ; preds = %43, %42
  br label %46

45:                                               ; preds = %25
  store i32 0, i32* %7, align 4
  br label %46

46:                                               ; preds = %45, %44
  %47 = load i32, i32* %3, align 4
  %48 = icmp sgt i32 %47, 2
  br i1 %48, label %49, label %53

49:                                               ; preds = %46
  %50 = load i32, i32* %5, align 4
  %51 = load i32, i32* %7, align 4
  %52 = add nsw i32 %50, %51
  store i32 %52, i32* %5, align 4
  br label %53

53:                                               ; preds = %49, %46
  %54 = load i32, i32* %5, align 4
  %55 = call i32 (i8*, ...) @printf(i8* getelementptr inbounds ([4 x i8], [4 x i8]* @.str.1, i64 0, i64 0), i32 %54)
  ret i32 0
}

declare dso_local i32 @__isoc99_scanf(i8*, ...) #1

; Function Attrs: argmemonly nounwind willreturn
declare void @llvm.memcpy.p0i8.p0i8.i64(i8* noalias nocapture writeonly, i8* noalias nocapture readonly, i64, i1 immarg) #2

declare dso_local i32 @printf(i8*, ...) #1


!llvm.module.flags = !{!0}
!llvm.ident = !{!1}

!0 = !{i32 1, !"wchar_size", i32 4}
!1 = !{!"clang version 10.0.0-4ubuntu1 "}
